target datalayout = "e-m:e-p270:32:32-p271:32:32-p272:64:64-i64:64-i128:128-f80:128-n8:16:32:64-S128"
target triple = "x86_64-unknown-linux-gnu"

%"class.sat::literal" = type { i32 }
%"class.sat::npn3_finder" = type { ptr, %"class.sat::big", %"class.std::function", %"class.std::function", %"class.std::function", %"class.std::function", %"class.std::function", %"class.std::function", %"class.std::function", %"class.std::function", %"class.std::function", %"class.std::function", %class.scoped_ptr_vector }
%"class.sat::big" = type { ptr, i32, %class.vector, %class.svector, %class.svector.1, %class.svector.1, %class.svector.3, %class.svector.3, i8, i8, %class.vector }
%class.svector = type { %class.vector.0 }
%class.vector.0 = type { ptr }
%class.svector.1 = type { %class.vector.2 }
%class.vector.2 = type { ptr }
%class.svector.3 = type { %class.vector.4 }
%class.vector.4 = type { ptr }
%class.vector = type { ptr }
%"class.std::function" = type { %"class.std::_Function_base", ptr }
%"class.std::_Function_base" = type { %"union.std::_Any_data", ptr }
%"union.std::_Any_data" = type { %"union.std::_Nocopy_types" }
%"union.std::_Nocopy_types" = type { { i64, i64 } }
%class.scoped_ptr_vector = type { %class.ptr_vector }
%class.ptr_vector = type { %class.vector.5 }
%class.vector.5 = type { ptr }
%"class.sat::solver" = type { %"class.sat::solver_core", i8, [7 x i8], %"struct.sat::config", %"struct.sat::stats", %class.scoped_ptr, %class.scoped_ptr.6, ptr, %"class.sat::drat", [2 x %"class.sat::clause_allocator"], i8, %class.random_gen, %"class.sat::cleaner", %class.svector.20, %"class.sat::model_converter", i8, %"class.sat::simplifier", %"class.sat::scc", %"class.sat::asymm_branch", %"class.sat::probing", i8, [7 x i8], %"class.sat::mus", %"class.sat::binspr", i8, i8, [6 x i8], %"class.sat::justification", %"class.sat::literal", %class.ptr_vector.27, %class.ptr_vector.27, i32, %class.svector.13, %class.svector.13, %class.svector.13, %class.svector.13, %class.vector.42, %class.svector.20, %class.svector.43, %class.svector, %class.svector, %class.svector, %class.svector, %class.svector, %class.svector.13, %class.svector.13, i32, %class.svector.3, %class.svector.13, i32, %class.svector.45, %class.svector.45, %class.svector.45, %class.svector.45, %class.svector.45, i32, double, %class.svector, %class.svector, %class.svector, %class.svector.31, i32, i32, i32, i32, i32, i32, %"struct.sat::backoff", i32, i32, %"struct.sat::backoff", %"struct.sat::backoff", %class.var_queue, i32, i32, i32, %class.ema, %class.ema, %class.ema, %class.ema, %class.ema, %class.svector.3, %class.svector.33, %"class.std::__cxx11::basic_string", i8, %class.visit_helper, %class.svector.47, %class.scoped_limit_trail, %class.stopwatch, %class.params_ref, %"struct.sat::no_drat_params", %class.scoped_ptr.40, %class.svector.3, %"class.sat::literal_set", %"class.sat::literal_set", %class.svector.3, i32, i32, i32, i32, i8, ptr, ptr, %class.statistics, i32, i32, i32, i32, i8, i32, i32, i32, i32, i32, i32, i32, double, i32, double, i8, i8, %class.svector.3, i8, %class.svector.45, i32, i32, i32, %class.svector.3, %class.svector.3, %class.svector.31, %class.svector.13, %class.approx_set_tpl, %class.svector.3, %class.svector.3, %class.vector.19, %class.svector.3, %class.svector.38, %class.u_map, %class.svector.3 }
%"class.sat::solver_core" = type { ptr, ptr }
%"struct.sat::config" = type <{ i64, i32, i32, i32, i8, [3 x i8], i32, i32, double, i32, i8, [3 x i8], i32, i8, [3 x i8], i32, [4 x i8], double, double, i32, i32, double, double, i32, [4 x i8], %class.symbol, double, i32, i32, i8, [3 x i8], i32, i32, i8, [3 x i8], i32, i8, [3 x i8], i32, i8, [3 x i8], i32, i8, i8, i8, i8, i32, i8, i8, i8, i8, i8, i8, i8, i8, i32, i8, i8, i8, i8, i32, double, i32, [4 x i8], double, double, double, double, i32, i8, i8, [2 x i8], double, i8, i8, [2 x i8], i32, double, i32, i32, i32, i32, i32, i32, i32, i32, i8, i8, i8, i8, i32, i32, i8, i8, i8, i8, i8, i8, i8, [5 x i8], %class.symbol, i8, i8, i8, i8, i8, i8, [2 x i8], i32, i32, i32, i8, [3 x i8], double, double, double, double, double, i8, [7 x i8] }>
%class.symbol = type { ptr }
%"struct.sat::stats" = type { i32, i32, i32, i32, i32, i32, i32, i32, i32, i32, i32, i32, i32, i32, i32, i32, i32, i32, i32, i32, i32 }
%class.scoped_ptr = type { ptr }
%class.scoped_ptr.6 = type { ptr }
%"class.sat::drat" = type { ptr, %class.svector.7, ptr, %"class.sat::clause_allocator", ptr, ptr, %class.svector.15, %class.svector.17, %class.vector.19, %class.svector.20, i8, i8, i8, i8, i8, %"struct.sat::drat::stats" }
%class.svector.7 = type { %class.vector.8 }
%class.vector.8 = type { ptr }
%"class.sat::clause_allocator" = type { %class.sat_allocator, %class.id_gen }
%class.sat_allocator = type { ptr, i64, %class.ptr_vector.9, ptr, [65 x %class.ptr_vector.11] }
%class.ptr_vector.9 = type { %class.vector.10 }
%class.vector.10 = type { ptr }
%class.ptr_vector.11 = type { %class.vector.12 }
%class.vector.12 = type { ptr }
%class.id_gen = type { i32, %class.svector.13 }
%class.svector.15 = type { %class.vector.16 }
%class.vector.16 = type { ptr }
%class.svector.17 = type { %class.vector.18 }
%class.vector.18 = type { ptr }
%"struct.sat::drat::stats" = type { i32, i32, i32, i32 }
%class.random_gen = type { i32 }
%"class.sat::cleaner" = type { ptr, i32, i32, i32, i32 }
%"class.sat::model_converter" = type { %class.vector.22, i32, %class.svector, ptr, %class.svector.23 }
%class.vector.22 = type { ptr }
%class.svector.23 = type { %class.vector.24 }
%class.vector.24 = type { ptr }
%"class.sat::simplifier" = type { ptr, i32, %"class.sat::use_list", %"class.sat::ext_use_list", %"class.sat::clause_set", %class.svector.29, i32, %class.tracked_uint_set, i8, %"class.sat::tmp_clause", %class.svector.31, i32, i32, i8, i8, i8, i8, i32, i8, i8, i32, i8, i32, i8, i8, i32, i32, i32, i32, i32, i32, i32, i32, i32, i32, i8, i32, i8, i8, i32, i32, i32, i32, i32, i32, i32, i32, i32, i32, i32, i8, i32, %class.ptr_vector.27, %class.svector.3, %class.svector.33, %class.svector.33, %class.svector.3 }
%"class.sat::use_list" = type { %class.vector.25 }
%class.vector.25 = type { ptr }
%"class.sat::ext_use_list" = type { %class.vector.26 }
%class.vector.26 = type { ptr }
%"class.sat::clause_set" = type { %class.svector.13, %class.ptr_vector.27 }
%class.svector.29 = type { %class.vector.30 }
%class.vector.30 = type { ptr }
%class.tracked_uint_set = type { %class.svector.31, %class.svector.13 }
%"class.sat::tmp_clause" = type { ptr }
%"class.sat::scc" = type { ptr, i8, i8, i32, i32, %"class.sat::big" }
%"class.sat::asymm_branch" = type { ptr, %class.params_ref, i64, %class.random_gen, i32, i32, i8, i32, i32, i8, i8, i64, i32, i32, i32, %class.svector.3, %class.svector.3, %class.svector.35, %class.svector.35, %class.svector.3, %class.svector.3 }
%class.svector.35 = type { %class.vector.36 }
%class.vector.36 = type { ptr }
%"class.sat::probing" = type { ptr, i32, %"class.sat::literal_set", %class.svector.3, i32, i8, i32, i8, i8, i64, i32, %class.vector.37, %class.svector.38, %"class.sat::big" }
%class.vector.37 = type { ptr }
%"class.sat::mus" = type <{ ptr, %class.svector.3, %class.svector.3, i8, [7 x i8], %class.svector.20, i32, [4 x i8] }>
%"class.sat::binspr" = type <{ ptr, %class.scoped_ptr.40, i32, i32, %class.vector.41, i32, i32, %class.svector, %class.svector, %class.svector.3, %class.svector.3, i32, i32, i32, i32, i32, [4 x i32], [5 x i32], [5 x i32], [4 x i8] }>
%class.vector.41 = type { ptr }
%"class.sat::justification" = type <{ i32, [4 x i8], i64, i32, [4 x i8] }>
%class.ptr_vector.27 = type { %class.vector.28 }
%class.vector.28 = type { ptr }
%class.vector.42 = type { ptr }
%class.svector.20 = type { %class.vector.21 }
%class.vector.21 = type { ptr }
%class.svector.43 = type { %class.vector.44 }
%class.vector.44 = type { ptr }
%"struct.sat::backoff" = type { i32, i32, i32, i32, i32 }
%class.var_queue = type { %class.heap }
%class.heap = type { %"struct.var_queue<svector<unsigned int>>::lt", %class.svector.1, %class.svector.1 }
%"struct.var_queue<svector<unsigned int>>::lt" = type { ptr }
%class.ema = type { double, double, double, i32, i32 }
%class.svector.33 = type { %class.vector.34 }
%class.vector.34 = type { ptr }
%"class.std::__cxx11::basic_string" = type { %"struct.std::__cxx11::basic_string<char>::_Alloc_hider", i64, %union.anon }
%"struct.std::__cxx11::basic_string<char>::_Alloc_hider" = type { ptr }
%union.anon = type { i64, [8 x i8] }
%class.visit_helper = type { %class.svector.13, i32, i32 }
%class.svector.47 = type { %class.vector.48 }
%class.vector.48 = type { ptr }
%class.scoped_limit_trail = type { %class.svector.13, i32, i32 }
%class.stopwatch = type <{ %"class.std::chrono::time_point", %"class.std::chrono::duration", i8, [7 x i8] }>
%"class.std::chrono::time_point" = type { %"class.std::chrono::duration" }
%"class.std::chrono::duration" = type { i64 }
%class.params_ref = type { ptr }
%"struct.sat::no_drat_params" = type { %class.params_ref }
%class.scoped_ptr.40 = type { ptr }
%"class.sat::literal_set" = type { %class.tracked_uint_set }
%class.statistics = type { %class.svector.49, %class.svector.51 }
%class.svector.49 = type { %class.vector.50 }
%class.vector.50 = type { ptr }
%class.svector.51 = type { %class.vector.52 }
%class.vector.52 = type { ptr }
%class.svector.45 = type { %class.vector.46 }
%class.vector.46 = type { ptr }
%class.svector.31 = type { %class.vector.32 }
%class.vector.32 = type { ptr }
%class.svector.13 = type { %class.vector.14 }
%class.vector.14 = type { ptr }
%class.approx_set_tpl = type { i32 }
%class.vector.19 = type { ptr }
%class.svector.38 = type { %class.vector.39 }
%class.vector.39 = type { ptr }
%class.u_map = type { %class.map }
%class.map = type { %class.table2map }
%class.table2map = type { %class.core_hashtable }
%class.core_hashtable = type <{ ptr, i32, i32, i32, [4 x i8] }>
%class.anon = type { ptr, ptr }
%class.anon.56 = type { ptr, ptr }
%"class.sat::clause" = type { i32, i32, i32, %class.approx_set_tpl, i32, [0 x %"class.sat::literal"] }

; Function Attrs: mustprogress nounwind uwtable
define linkonce_odr hidden noundef i32 @_ZNK6vectorIPN3sat6clauseELb0EjE4sizeEv(ptr noundef nonnull align 8 dereferenceable(8) %this) #4 comdat align 2 {
entry:
  %retval = alloca i32, align 4
  %this.addr = alloca ptr, align 8
  store ptr %this, ptr %this.addr, align 8
  %this1 = load ptr, ptr %this.addr, align 8
  %m_data = getelementptr inbounds %class.vector.28, ptr %this1, i32 0, i32 0
  %0 = load ptr, ptr %m_data, align 8
  %cmp = icmp eq ptr %0, null
  br i1 %cmp, label %if.then, label %if.end

if.then:                                          ; preds = %entry
  store i32 0, ptr %retval, align 4
  br label %return

if.end:                                           ; preds = %entry
  %m_data2 = getelementptr inbounds %class.vector.28, ptr %this1, i32 0, i32 0
  %1 = load ptr, ptr %m_data2, align 8
  %arrayidx = getelementptr inbounds i32, ptr %1, i64 -1
  %2 = load i32, ptr %arrayidx, align 4
  store i32 %2, ptr %retval, align 4
  br label %return

return:                                           ; preds = %if.end, %if.then
  %3 = load i32, ptr %retval, align 4
  ret i32 %3
}

; Function Attrs: mustprogress nounwind uwtable
define linkonce_odr hidden noundef nonnull align 8 dereferenceable(8) ptr @_ZNK3sat6solver7clausesEv(ptr noundef nonnull align 8 dereferenceable(4408) %this) #4 comdat align 2 {
entry:
  %this.addr = alloca ptr, align 8
  store ptr %this, ptr %this.addr, align 8
  %this1 = load ptr, ptr %this.addr, align 8
  %m_clauses = getelementptr inbounds %"class.sat::solver", ptr %this1, i32 0, i32 29
  ret ptr %m_clauses
}

; Function Attrs: mustprogress uwtable
define linkonce_odr hidden noundef ptr @_ZNK6vectorIPN3sat6clauseELb0EjE3endEv(ptr noundef nonnull align 8 dereferenceable(8) %this) #5 comdat align 2 {
entry:
  %this.addr = alloca ptr, align 8
  store ptr %this, ptr %this.addr, align 8
  %this1 = load ptr, ptr %this.addr, align 8
  %m_data = getelementptr inbounds %class.vector.28, ptr %this1, i32 0, i32 0
  %0 = load ptr, ptr %m_data, align 8
  %call = call noundef i32 @_ZNK6vectorIPN3sat6clauseELb0EjE4sizeEv(ptr noundef nonnull align 8 dereferenceable(8) %this1)
  %idx.ext = zext i32 %call to i64
  %add.ptr = getelementptr inbounds ptr, ptr %0, i64 %idx.ext
  ret ptr %add.ptr
}

; Function Attrs: mustprogress nounwind uwtable
define linkonce_odr hidden noundef ptr @_ZNK6vectorIPN3sat6clauseELb0EjE5beginEv(ptr noundef nonnull align 8 dereferenceable(8) %this) #4 comdat align 2 {
entry:
  %this.addr = alloca ptr, align 8
  store ptr %this, ptr %this.addr, align 8
  %this1 = load ptr, ptr %this.addr, align 8
  %m_data = getelementptr inbounds %class.vector.28, ptr %this1, i32 0, i32 0
  %0 = load ptr, ptr %m_data, align 8
  ret ptr %0
}

; Function Attrs: mustprogress nounwind uwtable
define linkonce_odr hidden noundef nonnull align 8 dereferenceable(8) ptr @_ZNK3sat6solver7learnedEv(ptr noundef nonnull align 8 dereferenceable(4408) %this) #4 comdat align 2 {
entry:
  %this.addr = alloca ptr, align 8
  store ptr %this, ptr %this.addr, align 8
  %this1 = load ptr, ptr %this.addr, align 8
  %m_learned = getelementptr inbounds %"class.sat::solver", ptr %this1, i32 0, i32 30
  ret ptr %m_learned
}

; Function Attrs: mustprogress nounwind uwtable
define linkonce_odr hidden void @_ZN3sat6clause11unmark_usedEv(ptr noundef nonnull align 4 dereferenceable(20) %this) #4 comdat align 2 {
entry:
  %this.addr = alloca ptr, align 8
  store ptr %this, ptr %this.addr, align 8
  %this1 = load ptr, ptr %this.addr, align 8
  %m_used = getelementptr inbounds %"class.sat::clause", ptr %this1, i32 0, i32 4
  %bf.load = load i32, ptr %m_used, align 4
  %bf.clear = and i32 %bf.load, -9
  %bf.set = or i32 %bf.clear, 0
  store i32 %bf.set, ptr %m_used, align 4
  ret void
}

; Function Attrs: mustprogress nounwind uwtable
define linkonce_odr hidden noundef ptr @_ZN6vectorIPN3sat6clauseELb0EjE3endEv(ptr noundef nonnull align 8 dereferenceable(8) %this) #4 comdat align 2 {
entry:
  %this.addr = alloca ptr, align 8
  store ptr %this, ptr %this.addr, align 8
  %this1 = load ptr, ptr %this.addr, align 8
  %m_data = getelementptr inbounds %class.vector.28, ptr %this1, i32 0, i32 0
  %0 = load ptr, ptr %m_data, align 8
  %call = call noundef i32 @_ZNK6vectorIPN3sat6clauseELb0EjE4sizeEv(ptr noundef nonnull align 8 dereferenceable(8) %this1)
  %idx.ext = zext i32 %call to i64
  %add.ptr = getelementptr inbounds ptr, ptr %0, i64 %idx.ext
  ret ptr %add.ptr
}

; Function Attrs: mustprogress nounwind uwtable
define linkonce_odr hidden noundef ptr @_ZN6vectorIPN3sat6clauseELb0EjE5beginEv(ptr noundef nonnull align 8 dereferenceable(8) %this) #4 comdat align 2 {
entry:
  %this.addr = alloca ptr, align 8
  store ptr %this, ptr %this.addr, align 8
  %this1 = load ptr, ptr %this.addr, align 8
  %m_data = getelementptr inbounds %class.vector.28, ptr %this1, i32 0, i32 0
  %0 = load ptr, ptr %m_data, align 8
  ret ptr %0
}

; Function Attrs: mustprogress uwtable
define hidden void @_ZN3sat11npn3_finder15process_clausesER10ptr_vectorINS_6clauseEER9hashtableINS0_6binaryENS6_4hashENS6_2eqEERS5_INS0_7ternaryENSB_4hashENSB_2eqEE(ptr noundef nonnull align 8 dereferenceable(416) %this, ptr noundef nonnull align 8 dereferenceable(8) %clauses, ptr noundef nonnull align 8 dereferenceable(20) %binaries, ptr noundef nonnull align 8 dereferenceable(20) %ternaries) #5 align 2 {
entry:
  %this.addr = alloca ptr, align 8
  %clauses.addr = alloca ptr, align 8
  %binaries.addr = alloca ptr, align 8
  %ternaries.addr = alloca ptr, align 8
  %__range1 = alloca ptr, align 8
  %__begin1 = alloca ptr, align 8
  %__end1 = alloca ptr, align 8
  %cp = alloca ptr, align 8
  %insert_binary = alloca %class.anon, align 8
  %insert_ternary = alloca %class.anon.56, align 8
  %__range13 = alloca ptr, align 8
  %__begin15 = alloca ptr, align 8
  %__end17 = alloca ptr, align 8
  %cp12 = alloca ptr, align 8
  %__range116 = alloca ptr, align 8
  %__begin119 = alloca ptr, align 8
  %__end121 = alloca ptr, align 8
  %cp26 = alloca ptr, align 8
  store ptr %this, ptr %this.addr, align 8
  store ptr %clauses, ptr %clauses.addr, align 8
  store ptr %binaries, ptr %binaries.addr, align 8
  store ptr %ternaries, ptr %ternaries.addr, align 8
  %this1 = load ptr, ptr %this.addr, align 8
  %0 = load ptr, ptr %clauses.addr, align 8
  store ptr %0, ptr %__range1, align 8
  %1 = load ptr, ptr %__range1, align 8
  %call = call noundef ptr @_ZN6vectorIPN3sat6clauseELb0EjE5beginEv(ptr noundef nonnull align 8 dereferenceable(8) %1)
  store ptr %call, ptr %__begin1, align 8
  %2 = load ptr, ptr %__range1, align 8
  %call2 = call noundef ptr @_ZN6vectorIPN3sat6clauseELb0EjE3endEv(ptr noundef nonnull align 8 dereferenceable(8) %2)
  store ptr %call2, ptr %__end1, align 8
  br label %for.cond

for.cond:                                         ; preds = %for.inc, %entry
  %3 = load ptr, ptr %__begin1, align 8
  %4 = load ptr, ptr %__end1, align 8
  %cmp = icmp ne ptr %3, %4
  br i1 %cmp, label %for.body, label %for.end

for.body:                                         ; preds = %for.cond
  %5 = load ptr, ptr %__begin1, align 8
  %6 = load ptr, ptr %5, align 8
  store ptr %6, ptr %cp, align 8
  %7 = load ptr, ptr %cp, align 8
  call void @_ZN3sat6clause11unmark_usedEv(ptr noundef nonnull align 4 dereferenceable(20) %7)
  br label %for.inc

for.inc:                                          ; preds = %for.body
  %8 = load ptr, ptr %__begin1, align 8
  %incdec.ptr = getelementptr inbounds ptr, ptr %8, i32 1
  store ptr %incdec.ptr, ptr %__begin1, align 8
  br label %for.cond

for.end:                                          ; preds = %for.cond
  %9 = getelementptr inbounds %class.anon, ptr %insert_binary, i32 0, i32 0
  %10 = load ptr, ptr %binaries.addr, align 8
  store ptr %10, ptr %9, align 8
  %11 = getelementptr inbounds %class.anon, ptr %insert_binary, i32 0, i32 1
  store ptr %this1, ptr %11, align 8
  %12 = getelementptr inbounds %class.anon.56, ptr %insert_ternary, i32 0, i32 0
  %13 = load ptr, ptr %ternaries.addr, align 8
  store ptr %13, ptr %12, align 8
  %14 = getelementptr inbounds %class.anon.56, ptr %insert_ternary, i32 0, i32 1
  store ptr %insert_binary, ptr %14, align 8
  %s = getelementptr inbounds %"class.sat::npn3_finder", ptr %this1, i32 0, i32 0
  %15 = load ptr, ptr %s, align 8
  %call4 = call noundef nonnull align 8 dereferenceable(8) ptr @_ZNK3sat6solver7learnedEv(ptr noundef nonnull align 8 dereferenceable(4408) %15)
  store ptr %call4, ptr %__range13, align 8
  %16 = load ptr, ptr %__range13, align 8
  %call6 = call noundef ptr @_ZNK6vectorIPN3sat6clauseELb0EjE5beginEv(ptr noundef nonnull align 8 dereferenceable(8) %16)
  store ptr %call6, ptr %__begin15, align 8
  %17 = load ptr, ptr %__range13, align 8
  %call8 = call noundef ptr @_ZNK6vectorIPN3sat6clauseELb0EjE3endEv(ptr noundef nonnull align 8 dereferenceable(8) %17)
  store ptr %call8, ptr %__end17, align 8
  br label %for.cond9

for.cond9:                                        ; preds = %for.inc13, %for.end
  %18 = load ptr, ptr %__begin15, align 8
  %19 = load ptr, ptr %__end17, align 8
  %cmp10 = icmp ne ptr %18, %19
  br i1 %cmp10, label %for.body11, label %for.end15

for.body11:                                       ; preds = %for.cond9
  %20 = load ptr, ptr %__begin15, align 8
  %21 = load ptr, ptr %20, align 8
  store ptr %21, ptr %cp12, align 8
  %22 = load ptr, ptr %cp12, align 8
  call void @"_ZZN3sat11npn3_finder15process_clausesER10ptr_vectorINS_6clauseEER9hashtableINS0_6binaryENS6_4hashENS6_2eqEERS5_INS0_7ternaryENSB_4hashENSB_2eqEEENK3$_0clERS2_"(ptr noundef nonnull align 8 dereferenceable(16) %insert_ternary, ptr noundef nonnull align 4 dereferenceable(20) %22)
  br label %for.inc13

for.inc13:                                        ; preds = %for.body11
  %23 = load ptr, ptr %__begin15, align 8
  %incdec.ptr14 = getelementptr inbounds ptr, ptr %23, i32 1
  store ptr %incdec.ptr14, ptr %__begin15, align 8
  br label %for.cond9

for.end15:                                        ; preds = %for.cond9
  %s17 = getelementptr inbounds %"class.sat::npn3_finder", ptr %this1, i32 0, i32 0
  %24 = load ptr, ptr %s17, align 8
  %call18 = call noundef nonnull align 8 dereferenceable(8) ptr @_ZNK3sat6solver7clausesEv(ptr noundef nonnull align 8 dereferenceable(4408) %24)
  store ptr %call18, ptr %__range116, align 8
  %25 = load ptr, ptr %__range116, align 8
  %call20 = call noundef ptr @_ZNK6vectorIPN3sat6clauseELb0EjE5beginEv(ptr noundef nonnull align 8 dereferenceable(8) %25)
  store ptr %call20, ptr %__begin119, align 8
  %26 = load ptr, ptr %__range116, align 8
  %call22 = call noundef ptr @_ZNK6vectorIPN3sat6clauseELb0EjE3endEv(ptr noundef nonnull align 8 dereferenceable(8) %26)
  store ptr %call22, ptr %__end121, align 8
  br label %for.cond23

for.cond23:                                       ; preds = %for.inc27, %for.end15
  %27 = load ptr, ptr %__begin119, align 8
  %28 = load ptr, ptr %__end121, align 8
  %cmp24 = icmp ne ptr %27, %28
  br i1 %cmp24, label %for.body25, label %for.end29

for.body25:                                       ; preds = %for.cond23
  %29 = load ptr, ptr %__begin119, align 8
  %30 = load ptr, ptr %29, align 8
  store ptr %30, ptr %cp26, align 8
  %31 = load ptr, ptr %cp26, align 8
  call void @"_ZZN3sat11npn3_finder15process_clausesER10ptr_vectorINS_6clauseEER9hashtableINS0_6binaryENS6_4hashENS6_2eqEERS5_INS0_7ternaryENSB_4hashENSB_2eqEEENK3$_0clERS2_"(ptr noundef nonnull align 8 dereferenceable(16) %insert_ternary, ptr noundef nonnull align 4 dereferenceable(20) %31)
  br label %for.inc27

for.inc27:                                        ; preds = %for.body25
  %32 = load ptr, ptr %__begin119, align 8
  %incdec.ptr28 = getelementptr inbounds ptr, ptr %32, i32 1
  store ptr %incdec.ptr28, ptr %__begin119, align 8
  br label %for.cond23

for.end29:                                        ; preds = %for.cond23
  ret void
}