; Function Attrs: mustprogress uwtable
define hidden void @_ZN3sat11npn3_finder15process_clausesER10ptr_vectorINS_6clauseEER9hashtableINS0_6binaryENS6_4hashENS6_2eqEERS5_INS0_7ternaryENSB_4hashENSB_2eqEE(ptr noundef nonnull align 8 dereferenceable(416) %this, ptr nocapture noundef nonnull readonly align 8 dereferenceable(8) %clauses, ptr noundef nonnull align 8 dereferenceable(20) %binaries, ptr noundef nonnull align 8 dereferenceable(20) %ternaries) local_unnamed_addr #7 align 2 {
entry:
  %insert_binary = alloca %class.anon, align 8
  %insert_ternary = alloca %class.anon.56, align 8
  %0 = load ptr, ptr %clauses, align 8
  %cmp.i.i = icmp eq ptr %0, null
  br i1 %cmp.i.i, label %for.end, label %_ZN6vectorIPN3sat6clauseELb0EjE3endEv.exit

_ZN6vectorIPN3sat6clauseELb0EjE3endEv.exit:       ; preds = %entry
  %arrayidx.i.i = getelementptr inbounds i8, ptr %0, i64 -4
  %1 = load i32, ptr %arrayidx.i.i, align 4
  %2 = zext i32 %1 to i64
  %add.ptr.i = getelementptr inbounds ptr, ptr %0, i64 %2
  %cmp.not21 = icmp eq i32 %1, 0
  br i1 %cmp.not21, label %for.end, label %for.body

for.body:                                         ; preds = %_ZN6vectorIPN3sat6clauseELb0EjE3endEv.exit, %for.body
  %__begin1.022 = phi ptr [ %incdec.ptr, %for.body ], [ %0, %_ZN6vectorIPN3sat6clauseELb0EjE3endEv.exit ]
  %3 = load ptr, ptr %__begin1.022, align 8
  %m_used.i = getelementptr inbounds i8, ptr %3, i64 16
  %bf.load.i = load i32, ptr %m_used.i, align 4
  %bf.clear.i = and i32 %bf.load.i, -9
  store i32 %bf.clear.i, ptr %m_used.i, align 4
  %incdec.ptr = getelementptr inbounds i8, ptr %__begin1.022, i64 8
  %cmp.not = icmp eq ptr %incdec.ptr, %add.ptr.i
  br i1 %cmp.not, label %for.end, label %for.body

for.end:                                          ; preds = %for.body, %entry, %_ZN6vectorIPN3sat6clauseELb0EjE3endEv.exit
  store ptr %binaries, ptr %insert_binary, align 8
  %4 = getelementptr inbounds i8, ptr %insert_binary, i64 8
  store ptr %this, ptr %4, align 8
  store ptr %ternaries, ptr %insert_ternary, align 8
  %5 = getelementptr inbounds i8, ptr %insert_ternary, i64 8
  store ptr %insert_binary, ptr %5, align 8
  %6 = load ptr, ptr %this, align 8
  %m_learned.i = getelementptr inbounds i8, ptr %6, i64 3384
  %7 = load ptr, ptr %m_learned.i, align 8
  %cmp.i.i10 = icmp eq ptr %7, null
  br i1 %cmp.i.i10, label %for.end15, label %_ZNK6vectorIPN3sat6clauseELb0EjE3endEv.exit

_ZNK6vectorIPN3sat6clauseELb0EjE3endEv.exit:      ; preds = %for.end
  %arrayidx.i.i12 = getelementptr inbounds i8, ptr %7, i64 -4
  %8 = load i32, ptr %arrayidx.i.i12, align 4
  %9 = zext i32 %8 to i64
  %add.ptr.i14 = getelementptr inbounds ptr, ptr %7, i64 %9
  %cmp10.not23 = icmp eq i32 %8, 0
  br i1 %cmp10.not23, label %for.end15, label %for.body11

for.body11:                                       ; preds = %_ZNK6vectorIPN3sat6clauseELb0EjE3endEv.exit, %for.body11
  %__begin15.024 = phi ptr [ %incdec.ptr14, %for.body11 ], [ %7, %_ZNK6vectorIPN3sat6clauseELb0EjE3endEv.exit ]
  %10 = load ptr, ptr %__begin15.024, align 8
  call fastcc void @"_ZZN3sat11npn3_finder15process_clausesER10ptr_vectorINS_6clauseEER9hashtableINS0_6binaryENS6_4hashENS6_2eqEERS5_INS0_7ternaryENSB_4hashENSB_2eqEEENK3$_0clERS2_"(ptr noundef nonnull align 8 dereferenceable(16) %insert_ternary, ptr noundef nonnull align 4 dereferenceable(20) %10)
  %incdec.ptr14 = getelementptr inbounds i8, ptr %__begin15.024, i64 8
  %cmp10.not = icmp eq ptr %incdec.ptr14, %add.ptr.i14
  br i1 %cmp10.not, label %for.end15.loopexit, label %for.body11

for.end15.loopexit:                               ; preds = %for.body11
  %.pre = load ptr, ptr %this, align 8
  br label %for.end15

for.end15:                                        ; preds = %for.end, %for.end15.loopexit, %_ZNK6vectorIPN3sat6clauseELb0EjE3endEv.exit
  %11 = phi ptr [ %.pre, %for.end15.loopexit ], [ %6, %_ZNK6vectorIPN3sat6clauseELb0EjE3endEv.exit ], [ %6, %for.end ]
  %m_clauses.i = getelementptr inbounds i8, ptr %11, i64 3376
  %12 = load ptr, ptr %m_clauses.i, align 8
  %cmp.i.i15 = icmp eq ptr %12, null
  br i1 %cmp.i.i15, label %for.end29, label %_ZNK6vectorIPN3sat6clauseELb0EjE3endEv.exit20

_ZNK6vectorIPN3sat6clauseELb0EjE3endEv.exit20:    ; preds = %for.end15
  %arrayidx.i.i17 = getelementptr inbounds i8, ptr %12, i64 -4
  %13 = load i32, ptr %arrayidx.i.i17, align 4
  %14 = zext i32 %13 to i64
  %add.ptr.i19 = getelementptr inbounds ptr, ptr %12, i64 %14
  %cmp24.not25 = icmp eq i32 %13, 0
  br i1 %cmp24.not25, label %for.end29, label %for.body25

for.body25:                                       ; preds = %_ZNK6vectorIPN3sat6clauseELb0EjE3endEv.exit20, %for.body25
  %__begin119.026 = phi ptr [ %incdec.ptr28, %for.body25 ], [ %12, %_ZNK6vectorIPN3sat6clauseELb0EjE3endEv.exit20 ]
  %15 = load ptr, ptr %__begin119.026, align 8
  call fastcc void @"_ZZN3sat11npn3_finder15process_clausesER10ptr_vectorINS_6clauseEER9hashtableINS0_6binaryENS6_4hashENS6_2eqEERS5_INS0_7ternaryENSB_4hashENSB_2eqEEENK3$_0clERS2_"(ptr noundef nonnull align 8 dereferenceable(16) %insert_ternary, ptr noundef nonnull align 4 dereferenceable(20) %15)
  %incdec.ptr28 = getelementptr inbounds i8, ptr %__begin119.026, i64 8
  %cmp24.not = icmp eq ptr %incdec.ptr28, %add.ptr.i19
  br i1 %cmp24.not, label %for.end29, label %for.body25

for.end29:                                        ; preds = %for.body25, %for.end15, %_ZNK6vectorIPN3sat6clauseELb0EjE3endEv.exit20
  ret void
}